target datalayout = "e-m:e-p270:32:32-p271:32:32-p272:64:64-i64:64-i128:128-f80:128-n8:16:32:64-S128"
target triple = "x86_64-pc-linux-gnu"

%struct._ir_bitqueue = type { i32, i32, ptr }
%struct._ir_ctx = type { ptr, i32, i32, i32, i32, i32, i32, i32, i32, i32, i32, %struct._ir_insn, ptr, ptr, ptr, i32, i32, i32, ptr, ptr, ptr, ptr, ptr, ptr, i32, i32, i64, i32, i32, i32, i64, i32, i32, i32, i32, ptr, ptr, ptr, ptr, ptr, ptr, %union.anon.13, ptr, i32, i32, i32, i64, i32, i32, i32, ptr, ptr, ptr, ptr, %struct._ir_strtab, [61 x i32], [14 x i32] }
%struct._ir_insn = type { %struct.anon, %union.anon.5 }
%struct.anon = type { %union.anon, %union.anon.4 }
%union.anon = type { i32 }
%union.anon.4 = type { i32 }
%union.anon.5 = type { %union._ir_val }
%union._ir_val = type { double }
%union.anon.13 = type { ptr }
%struct._ir_strtab = type { ptr, i32, i32, i32, i32, ptr, i32, i32 }
%struct._ir_use_list = type { i32, i32 }

; Function Attrs: alwaysinline nounwind uwtable
define internal i32 @ir_bitset_len(i32 noundef %0) #2 {
  %2 = alloca i32, align 4
  store i32 %0, ptr %2, align 4, !tbaa !33
  %3 = load i32, ptr %2, align 4, !tbaa !33
  %4 = add i32 %3, 63
  %5 = udiv i32 %4, 64
  ret i32 %5
}

; Function Attrs: alwaysinline nounwind uwtable
define internal void @ir_bitqueue_grow(ptr noundef %0, i32 noundef %1) #2 {
  %3 = alloca ptr, align 8
  %4 = alloca i32, align 4
  %5 = alloca i32, align 4
  store ptr %0, ptr %3, align 8, !tbaa !38
  store i32 %1, ptr %4, align 4, !tbaa !33
  call void @llvm.lifetime.start.p0(i64 4, ptr %5) #10
  %6 = load i32, ptr %4, align 4, !tbaa !33
  %7 = call i32 @ir_bitset_len(i32 noundef %6)
  store i32 %7, ptr %5, align 4, !tbaa !33
  %8 = load i32, ptr %5, align 4, !tbaa !33
  %9 = load ptr, ptr %3, align 8, !tbaa !38
  %10 = getelementptr inbounds nuw %struct._ir_bitqueue, ptr %9, i32 0, i32 0
  %11 = load i32, ptr %10, align 8, !tbaa !40
  %12 = icmp ugt i32 %8, %11
  br i1 %12, label %13, label %41

13:                                               ; preds = %2
  %14 = load ptr, ptr %3, align 8, !tbaa !38
  %15 = getelementptr inbounds nuw %struct._ir_bitqueue, ptr %14, i32 0, i32 2
  %16 = load ptr, ptr %15, align 8, !tbaa !44
  %17 = load i32, ptr %5, align 4, !tbaa !33
  %18 = mul i32 %17, 8
  %19 = zext i32 %18 to i64
  %20 = call ptr @_erealloc(ptr noundef %16, i64 noundef %19) #12
  %21 = load ptr, ptr %3, align 8, !tbaa !38
  %22 = getelementptr inbounds nuw %struct._ir_bitqueue, ptr %21, i32 0, i32 2
  store ptr %20, ptr %22, align 8, !tbaa !44
  %23 = load ptr, ptr %3, align 8, !tbaa !38
  %24 = getelementptr inbounds nuw %struct._ir_bitqueue, ptr %23, i32 0, i32 2
  %25 = load ptr, ptr %24, align 8, !tbaa !44
  %26 = load ptr, ptr %3, align 8, !tbaa !38
  %27 = getelementptr inbounds nuw %struct._ir_bitqueue, ptr %26, i32 0, i32 0
  %28 = load i32, ptr %27, align 8, !tbaa !40
  %29 = zext i32 %28 to i64
  %30 = getelementptr inbounds nuw i64, ptr %25, i64 %29
  %31 = load i32, ptr %5, align 4, !tbaa !33
  %32 = load ptr, ptr %3, align 8, !tbaa !38
  %33 = getelementptr inbounds nuw %struct._ir_bitqueue, ptr %32, i32 0, i32 0
  %34 = load i32, ptr %33, align 8, !tbaa !40
  %35 = sub i32 %31, %34
  %36 = mul i32 %35, 8
  %37 = zext i32 %36 to i64
  call void @llvm.memset.p0.i64(ptr align 8 %30, i8 0, i64 %37, i1 false)
  %38 = load i32, ptr %5, align 4, !tbaa !33
  %39 = load ptr, ptr %3, align 8, !tbaa !38
  %40 = getelementptr inbounds nuw %struct._ir_bitqueue, ptr %39, i32 0, i32 0
  store i32 %38, ptr %40, align 8, !tbaa !40
  br label %41

41:                                               ; preds = %13, %2
  call void @llvm.lifetime.end.p0(i64 4, ptr %5) #10
  ret void
}

; Function Attrs: alwaysinline nounwind uwtable
define internal void @ir_bitqueue_add(ptr noundef %0, i32 noundef %1) #2 {
  %3 = alloca ptr, align 8
  %4 = alloca i32, align 4
  %5 = alloca i32, align 4
  store ptr %0, ptr %3, align 8, !tbaa !38
  store i32 %1, ptr %4, align 4, !tbaa !33
  call void @llvm.lifetime.start.p0(i64 4, ptr %5) #10
  %6 = load i32, ptr %4, align 4, !tbaa !33
  %7 = udiv i32 %6, 64
  store i32 %7, ptr %5, align 4, !tbaa !33
  %8 = load i32, ptr %4, align 4, !tbaa !33
  %9 = urem i32 %8, 64
  %10 = zext i32 %9 to i64
  %11 = shl i64 1, %10
  %12 = load ptr, ptr %3, align 8, !tbaa !38
  %13 = getelementptr inbounds nuw %struct._ir_bitqueue, ptr %12, i32 0, i32 2
  %14 = load ptr, ptr %13, align 8, !tbaa !44
  %15 = load i32, ptr %5, align 4, !tbaa !33
  %16 = zext i32 %15 to i64
  %17 = getelementptr inbounds nuw i64, ptr %14, i64 %16
  %18 = load i64, ptr %17, align 8, !tbaa !60
  %19 = or i64 %18, %11
  store i64 %19, ptr %17, align 8, !tbaa !60
  %20 = load i32, ptr %5, align 4, !tbaa !33
  %21 = load ptr, ptr %3, align 8, !tbaa !38
  %22 = getelementptr inbounds nuw %struct._ir_bitqueue, ptr %21, i32 0, i32 1
  %23 = load i32, ptr %22, align 4, !tbaa !43
  %24 = icmp ult i32 %20, %23
  br i1 %24, label %25, label %29

25:                                               ; preds = %2
  %26 = load i32, ptr %5, align 4, !tbaa !33
  %27 = load ptr, ptr %3, align 8, !tbaa !38
  %28 = getelementptr inbounds nuw %struct._ir_bitqueue, ptr %27, i32 0, i32 1
  store i32 %26, ptr %28, align 4, !tbaa !43
  br label %29

29:                                               ; preds = %25, %2
  call void @llvm.lifetime.end.p0(i64 4, ptr %5) #10
  ret void
}

; Function Attrs: nounwind uwtable
define internal i32 @ir_find1(ptr noundef %0, i32 noundef %1, i32 noundef %2) #0 {
  %4 = alloca i32, align 4
  %5 = alloca ptr, align 8
  %6 = alloca i32, align 4
  %7 = alloca i32, align 4
  %8 = alloca ptr, align 8
  %9 = alloca ptr, align 8
  %10 = alloca i32, align 4
  %11 = alloca i32, align 4
  %12 = alloca ptr, align 8
  %13 = alloca i32, align 4
  store ptr %0, ptr %5, align 8, !tbaa !4
  store i32 %1, ptr %6, align 4, !tbaa !33
  store i32 %2, ptr %7, align 4, !tbaa !33
  call void @llvm.lifetime.start.p0(i64 8, ptr %8) #10
  %14 = load ptr, ptr %5, align 8, !tbaa !4
  %15 = getelementptr inbounds nuw %struct._ir_ctx, ptr %14, i32 0, i32 13
  %16 = load ptr, ptr %15, align 8, !tbaa !47
  %17 = load i32, ptr %7, align 4, !tbaa !33
  %18 = sext i32 %17 to i64
  %19 = getelementptr inbounds %struct._ir_use_list, ptr %16, i64 %18
  store ptr %19, ptr %8, align 8, !tbaa !55
  call void @llvm.lifetime.start.p0(i64 8, ptr %9) #10
  call void @llvm.lifetime.start.p0(i64 4, ptr %10) #10
  %20 = load ptr, ptr %8, align 8, !tbaa !55
  %21 = getelementptr inbounds nuw %struct._ir_use_list, ptr %20, i32 0, i32 1
  %22 = load i32, ptr %21, align 4, !tbaa !48
  store i32 %22, ptr %10, align 4, !tbaa !33
  %23 = load ptr, ptr %5, align 8, !tbaa !4
  %24 = getelementptr inbounds nuw %struct._ir_ctx, ptr %23, i32 0, i32 14
  %25 = load ptr, ptr %24, align 8, !tbaa !56
  %26 = load ptr, ptr %8, align 8, !tbaa !55
  %27 = getelementptr inbounds nuw %struct._ir_use_list, ptr %26, i32 0, i32 0
  %28 = load i32, ptr %27, align 4, !tbaa !57
  %29 = sext i32 %28 to i64
  %30 = getelementptr inbounds i32, ptr %25, i64 %29
  store ptr %30, ptr %9, align 8, !tbaa !52
  br label %31

31:                                               ; preds = %55, %3
  %32 = load i32, ptr %10, align 4, !tbaa !33
  %33 = icmp sgt i32 %32, 0
  br i1 %33, label %34, label %60

34:                                               ; preds = %31
  call void @llvm.lifetime.start.p0(i64 4, ptr %11) #10
  %35 = load ptr, ptr %9, align 8, !tbaa !52
  %36 = load i32, ptr %35, align 4, !tbaa !33
  store i32 %36, ptr %11, align 4, !tbaa !33
  call void @llvm.lifetime.start.p0(i64 8, ptr %12) #10
  %37 = load ptr, ptr %5, align 8, !tbaa !4
  %38 = getelementptr inbounds nuw %struct._ir_ctx, ptr %37, i32 0, i32 0
  %39 = load ptr, ptr %38, align 8, !tbaa !45
  %40 = load i32, ptr %11, align 4, !tbaa !33
  %41 = sext i32 %40 to i64
  %42 = getelementptr inbounds %struct._ir_insn, ptr %39, i64 %41
  store ptr %42, ptr %12, align 8, !tbaa !31
  %43 = load ptr, ptr %12, align 8, !tbaa !31
  %44 = getelementptr inbounds nuw %struct._ir_insn, ptr %43, i32 0, i32 0
  %45 = getelementptr inbounds nuw %struct.anon, ptr %44, i32 0, i32 0
  %46 = load i32, ptr %45, align 8, !tbaa !46
  %47 = load i32, ptr %6, align 4, !tbaa !33
  %48 = icmp eq i32 %46, %47
  br i1 %48, label %49, label %51

49:                                               ; preds = %34
  %50 = load i32, ptr %11, align 4, !tbaa !33
  store i32 %50, ptr %4, align 4
  store i32 1, ptr %13, align 4
  br label %52

51:                                               ; preds = %34
  store i32 0, ptr %13, align 4
  br label %52

52:                                               ; preds = %51, %49
  call void @llvm.lifetime.end.p0(i64 8, ptr %12) #10
  call void @llvm.lifetime.end.p0(i64 4, ptr %11) #10
  %53 = load i32, ptr %13, align 4
  switch i32 %53, label %61 [
    i32 0, label %54
  ]

54:                                               ; preds = %52
  br label %55

55:                                               ; preds = %54
  %56 = load ptr, ptr %9, align 8, !tbaa !52
  %57 = getelementptr inbounds nuw i32, ptr %56, i32 1
  store ptr %57, ptr %9, align 8, !tbaa !52
  %58 = load i32, ptr %10, align 4, !tbaa !33
  %59 = add nsw i32 %58, -1
  store i32 %59, ptr %10, align 4, !tbaa !33
  br label %31

60:                                               ; preds = %31
  store i32 0, ptr %4, align 4
  store i32 1, ptr %13, align 4
  br label %61

61:                                               ; preds = %60, %52
  call void @llvm.lifetime.end.p0(i64 4, ptr %10) #10
  call void @llvm.lifetime.end.p0(i64 8, ptr %9) #10
  call void @llvm.lifetime.end.p0(i64 8, ptr %8) #10
  %62 = load i32, ptr %4, align 4
  ret i32 %62
}

; Function Attrs: nounwind uwtable
define internal i32 @ir_ext_ref(ptr noundef %0, i32 noundef %1, i32 noundef %2, i32 noundef %3, i32 noundef %4, ptr noundef %5) #0 {
  %7 = alloca i32, align 4
  %8 = alloca ptr, align 8
  %9 = alloca i32, align 4
  %10 = alloca i32, align 4
  %11 = alloca i32, align 4
  %12 = alloca i32, align 4
  %13 = alloca ptr, align 8
  %14 = alloca i32, align 4
  %15 = alloca i32, align 4
  %16 = alloca i32, align 4
  store ptr %0, ptr %8, align 8, !tbaa !4
  store i32 %1, ptr %9, align 4, !tbaa !33
  store i32 %2, ptr %10, align 4, !tbaa !33
  store i32 %3, ptr %11, align 4, !tbaa !33
  store i32 %4, ptr %12, align 4, !tbaa !33
  store ptr %5, ptr %13, align 8, !tbaa !38
  call void @llvm.lifetime.start.p0(i64 4, ptr %14) #10
  %17 = load i32, ptr %11, align 4, !tbaa !33
  %18 = load i32, ptr %12, align 4, !tbaa !33
  %19 = shl i32 %18, 8
  %20 = or i32 %17, %19
  %21 = or i32 %20, 65536
  store i32 %21, ptr %14, align 4, !tbaa !33
  call void @llvm.lifetime.start.p0(i64 4, ptr %15) #10
  %22 = load i32, ptr %10, align 4, !tbaa !33
  %23 = icmp slt i32 %22, 0
  br i1 %23, label %47, label %24

24:                                               ; preds = %6
  %25 = load ptr, ptr %8, align 8, !tbaa !4
  %26 = load i32, ptr %14, align 4, !tbaa !33
  %27 = load i32, ptr %10, align 4, !tbaa !33
  %28 = call i32 @ir_find1(ptr noundef %25, i32 noundef %26, i32 noundef %27)
  store i32 %28, ptr %15, align 4, !tbaa !33
  %29 = load i32, ptr %15, align 4, !tbaa !33
  %30 = icmp ne i32 %29, 0
  br i1 %30, label %31, label %46

31:                                               ; preds = %24
  %32 = load ptr, ptr %8, align 8, !tbaa !4
  %33 = load i32, ptr %15, align 4, !tbaa !33
  %34 = load i32, ptr %9, align 4, !tbaa !33
  %35 = call zeroext i1 @ir_use_list_add(ptr noundef %32, i32 noundef %33, i32 noundef %34)
  %36 = load i32, ptr %10, align 4, !tbaa !33
  %37 = icmp slt i32 %36, 0
  br i1 %37, label %42, label %38

38:                                               ; preds = %31
  %39 = load ptr, ptr %8, align 8, !tbaa !4
  %40 = load i32, ptr %10, align 4, !tbaa !33
  %41 = load i32, ptr %9, align 4, !tbaa !33
  call void @ir_use_list_remove_one(ptr noundef %39, i32 noundef %40, i32 noundef %41)
  br label %42

42:                                               ; preds = %38, %31
  %43 = load ptr, ptr %13, align 8, !tbaa !38
  %44 = load i32, ptr %15, align 4, !tbaa !33
  call void @ir_bitqueue_add(ptr noundef %43, i32 noundef %44)
  %45 = load i32, ptr %15, align 4, !tbaa !33
  store i32 %45, ptr %7, align 4
  store i32 1, ptr %16, align 4
  br label %95

46:                                               ; preds = %24
  br label %47

47:                                               ; preds = %46, %6
  %48 = load ptr, ptr %8, align 8, !tbaa !4
  %49 = load i32, ptr %14, align 4, !tbaa !33
  %50 = load i32, ptr %10, align 4, !tbaa !33
  %51 = call i32 @ir_emit1(ptr noundef %48, i32 noundef %49, i32 noundef %50)
  store i32 %51, ptr %15, align 4, !tbaa !33
  %52 = load ptr, ptr %8, align 8, !tbaa !4
  %53 = getelementptr inbounds nuw %struct._ir_ctx, ptr %52, i32 0, i32 13
  %54 = load ptr, ptr %53, align 8, !tbaa !47
  %55 = load ptr, ptr %8, align 8, !tbaa !4
  %56 = getelementptr inbounds nuw %struct._ir_ctx, ptr %55, i32 0, i32 1
  %57 = load i32, ptr %56, align 8, !tbaa !30
  %58 = sext i32 %57 to i64
  %59 = mul i64 %58, 8
  %60 = call ptr @_erealloc(ptr noundef %54, i64 noundef %59) #12
  %61 = load ptr, ptr %8, align 8, !tbaa !4
  %62 = getelementptr inbounds nuw %struct._ir_ctx, ptr %61, i32 0, i32 13
  store ptr %60, ptr %62, align 8, !tbaa !47
  %63 = load ptr, ptr %8, align 8, !tbaa !4
  %64 = getelementptr inbounds nuw %struct._ir_ctx, ptr %63, i32 0, i32 13
  %65 = load ptr, ptr %64, align 8, !tbaa !47
  %66 = load i32, ptr %15, align 4, !tbaa !33
  %67 = sext i32 %66 to i64
  %68 = getelementptr inbounds %struct._ir_use_list, ptr %65, i64 %67
  %69 = getelementptr inbounds nuw %struct._ir_use_list, ptr %68, i32 0, i32 1
  store i32 0, ptr %69, align 4, !tbaa !48
  %70 = load ptr, ptr %8, align 8, !tbaa !4
  %71 = getelementptr inbounds nuw %struct._ir_ctx, ptr %70, i32 0, i32 13
  %72 = load ptr, ptr %71, align 8, !tbaa !47
  %73 = load i32, ptr %15, align 4, !tbaa !33
  %74 = sext i32 %73 to i64
  %75 = getelementptr inbounds %struct._ir_use_list, ptr %72, i64 %74
  %76 = getelementptr inbounds nuw %struct._ir_use_list, ptr %75, i32 0, i32 0
  store i32 0, ptr %76, align 4, !tbaa !57
  %77 = load ptr, ptr %8, align 8, !tbaa !4
  %78 = load i32, ptr %15, align 4, !tbaa !33
  %79 = load i32, ptr %9, align 4, !tbaa !33
  %80 = call zeroext i1 @ir_use_list_add(ptr noundef %77, i32 noundef %78, i32 noundef %79)
  %81 = load i32, ptr %10, align 4, !tbaa !33
  %82 = icmp slt i32 %81, 0
  br i1 %82, label %88, label %83

83:                                               ; preds = %47
  %84 = load ptr, ptr %8, align 8, !tbaa !4
  %85 = load i32, ptr %10, align 4, !tbaa !33
  %86 = load i32, ptr %9, align 4, !tbaa !33
  %87 = load i32, ptr %15, align 4, !tbaa !33
  call void @ir_use_list_replace_one(ptr noundef %84, i32 noundef %85, i32 noundef %86, i32 noundef %87)
  br label %88

88:                                               ; preds = %83, %47
  %89 = load ptr, ptr %13, align 8, !tbaa !38
  %90 = load i32, ptr %15, align 4, !tbaa !33
  %91 = add nsw i32 %90, 1
  call void @ir_bitqueue_grow(ptr noundef %89, i32 noundef %91)
  %92 = load ptr, ptr %13, align 8, !tbaa !38
  %93 = load i32, ptr %15, align 4, !tbaa !33
  call void @ir_bitqueue_add(ptr noundef %92, i32 noundef %93)
  %94 = load i32, ptr %15, align 4, !tbaa !33
  store i32 %94, ptr %7, align 4
  store i32 1, ptr %16, align 4
  br label %95

95:                                               ; preds = %88, %42
  call void @llvm.lifetime.end.p0(i64 4, ptr %15) #10
  call void @llvm.lifetime.end.p0(i64 4, ptr %14) #10
  %96 = load i32, ptr %7, align 4
  ret i32 %96
}