; Function Attrs: nounwind uwtable
define internal fastcc i32 @ir_ext_ref(ptr noundef %0, i32 noundef %1, i32 noundef %2, i32 noundef range(i32 0, 256) %3, i32 noundef range(i32 0, 256) %4, ptr noundef nonnull captures(none) %5) unnamed_addr #0 {
  %7 = shl nuw nsw i32 %4, 8
  %8 = or disjoint i32 %7, %3
  %9 = or disjoint i32 %8, 65536
  %10 = icmp slt i32 %2, 0
  br i1 %10, label %ir_find1.exit.thread, label %11

11:                                               ; preds = %6
  %12 = getelementptr inbounds nuw i8, ptr %0, i64 72
  %13 = load ptr, ptr %12, align 8, !tbaa !41
  %14 = zext nneg i32 %2 to i64
  %15 = getelementptr inbounds nuw %struct._ir_use_list, ptr %13, i64 %14
  %16 = getelementptr inbounds nuw i8, ptr %15, i64 4
  %17 = load i32, ptr %16, align 4, !tbaa !42
  %18 = icmp sgt i32 %17, 0
  br i1 %18, label %.lr.ph.i, label %ir_find1.exit.thread

.lr.ph.i:                                         ; preds = %11
  %19 = getelementptr inbounds nuw i8, ptr %0, i64 80
  %20 = load ptr, ptr %19, align 8, !tbaa !47
  %21 = load i32, ptr %15, align 4, !tbaa !48
  %22 = sext i32 %21 to i64
  %23 = getelementptr inbounds i32, ptr %20, i64 %22
  %24 = load ptr, ptr %0, align 8, !tbaa !38
  br label %25

25:                                               ; preds = %30, %.lr.ph.i
  %.01619.i = phi ptr [ %23, %.lr.ph.i ], [ %31, %30 ]
  %.01718.i = phi i32 [ %17, %.lr.ph.i ], [ %32, %30 ]
  %26 = load i32, ptr %.01619.i, align 4, !tbaa !40
  %27 = sext i32 %26 to i64
  %28 = getelementptr inbounds %struct._ir_insn, ptr %24, i64 %27
  %29 = load i32, ptr %28, align 8, !tbaa !39
  %.not.i = icmp eq i32 %29, %9
  br i1 %.not.i, label %ir_find1.exit, label %30

30:                                               ; preds = %25
  %31 = getelementptr inbounds nuw i8, ptr %.01619.i, i64 4
  %32 = add nsw i32 %.01718.i, -1
  %33 = icmp sgt i32 %.01718.i, 1
  br i1 %33, label %25, label %ir_find1.exit.thread

ir_find1.exit:                                    ; preds = %25
  %.not = icmp eq i32 %26, 0
  br i1 %.not, label %ir_find1.exit.thread, label %34

34:                                               ; preds = %ir_find1.exit
  %35 = tail call zeroext i1 @ir_use_list_add(ptr noundef nonnull %0, i32 noundef %26, i32 noundef %1) #13
  tail call void @ir_use_list_remove_one(ptr noundef nonnull %0, i32 noundef %2, i32 noundef %1) #13
  %36 = lshr i32 %26, 6
  %37 = and i32 %26, 63
  %38 = zext nneg i32 %37 to i64
  %39 = shl nuw i64 1, %38
  %40 = getelementptr inbounds nuw i8, ptr %5, i64 8
  %41 = load ptr, ptr %40, align 8, !tbaa !36
  %42 = zext nneg i32 %36 to i64
  %43 = getelementptr inbounds nuw i64, ptr %41, i64 %42
  %44 = load i64, ptr %43, align 8, !tbaa !37
  %45 = or i64 %44, %39
  store i64 %45, ptr %43, align 8, !tbaa !37
  %46 = getelementptr inbounds nuw i8, ptr %5, i64 4
  %47 = load i32, ptr %46, align 4, !tbaa !35
  %48 = icmp ult i32 %36, %47
  br i1 %48, label %49, label %ir_bitqueue_add.exit42

49:                                               ; preds = %34
  store i32 %36, ptr %46, align 4, !tbaa !35
  br label %ir_bitqueue_add.exit42

ir_find1.exit.thread:                             ; preds = %30, %11, %ir_find1.exit, %6
  %50 = tail call i32 @ir_emit1(ptr noundef %0, i32 noundef %9, i32 noundef %2) #13
  %51 = getelementptr inbounds nuw i8, ptr %0, i64 72
  %52 = load ptr, ptr %51, align 8, !tbaa !41
  %53 = getelementptr inbounds nuw i8, ptr %0, i64 8
  %54 = load i32, ptr %53, align 8, !tbaa !31
  %55 = sext i32 %54 to i64
  %56 = shl nsw i64 %55, 3
  %57 = tail call ptr @_erealloc(ptr noundef %52, i64 noundef %56) #15
  store ptr %57, ptr %51, align 8, !tbaa !41
  %58 = sext i32 %50 to i64
  %59 = getelementptr inbounds %struct._ir_use_list, ptr %57, i64 %58, i32 1
  store i32 0, ptr %59, align 4, !tbaa !42
  %60 = getelementptr inbounds %struct._ir_use_list, ptr %57, i64 %58
  store i32 0, ptr %60, align 4, !tbaa !48
  %61 = tail call zeroext i1 @ir_use_list_add(ptr noundef %0, i32 noundef %50, i32 noundef %1) #13
  br i1 %10, label %63, label %62

62:                                               ; preds = %ir_find1.exit.thread
  tail call void @ir_use_list_replace_one(ptr noundef nonnull %0, i32 noundef %2, i32 noundef %1, i32 noundef %50) #13
  br label %63

63:                                               ; preds = %62, %ir_find1.exit.thread
  %64 = add i32 %50, 64
  %65 = lshr i32 %64, 6
  %66 = load i32, ptr %5, align 8, !tbaa !32
  %67 = icmp ugt i32 %65, %66
  br i1 %67, label %68, label %ir_bitqueue_grow.exit

68:                                               ; preds = %63
  %69 = getelementptr inbounds nuw i8, ptr %5, i64 8
  %70 = load ptr, ptr %69, align 8, !tbaa !36
  %71 = shl nuw nsw i32 %65, 3
  %72 = zext nneg i32 %71 to i64
  %73 = tail call ptr @_erealloc(ptr noundef %70, i64 noundef %72) #15
  store ptr %73, ptr %69, align 8, !tbaa !36
  %74 = load i32, ptr %5, align 8, !tbaa !32
  %75 = zext i32 %74 to i64
  %76 = getelementptr inbounds nuw i64, ptr %73, i64 %75
  %77 = sub i32 %65, %74
  %78 = shl i32 %77, 3
  %79 = zext i32 %78 to i64
  tail call void @llvm.memset.p0.i64(ptr align 8 %76, i8 0, i64 %79, i1 false)
  store i32 %65, ptr %5, align 8, !tbaa !32
  br label %ir_bitqueue_grow.exit

ir_bitqueue_grow.exit:                            ; preds = %63, %68
  %80 = lshr i32 %50, 6
  %81 = and i32 %50, 63
  %82 = zext nneg i32 %81 to i64
  %83 = shl nuw i64 1, %82
  %84 = getelementptr inbounds nuw i8, ptr %5, i64 8
  %85 = load ptr, ptr %84, align 8, !tbaa !36
  %86 = zext nneg i32 %80 to i64
  %87 = getelementptr inbounds nuw i64, ptr %85, i64 %86
  %88 = load i64, ptr %87, align 8, !tbaa !37
  %89 = or i64 %88, %83
  store i64 %89, ptr %87, align 8, !tbaa !37
  %90 = getelementptr inbounds nuw i8, ptr %5, i64 4
  %91 = load i32, ptr %90, align 4, !tbaa !35
  %92 = icmp ult i32 %80, %91
  br i1 %92, label %93, label %ir_bitqueue_add.exit42

93:                                               ; preds = %ir_bitqueue_grow.exit
  store i32 %80, ptr %90, align 4, !tbaa !35
  br label %ir_bitqueue_add.exit42

ir_bitqueue_add.exit42:                           ; preds = %93, %ir_bitqueue_grow.exit, %49, %34
  %.0 = phi i32 [ %26, %34 ], [ %26, %49 ], [ %50, %ir_bitqueue_grow.exit ], [ %50, %93 ]
  ret i32 %.0
}